target datalayout = "e-m:e-p270:32:32-p271:32:32-p272:64:64-i64:64-i128:128-f80:128-n8:16:32:64-S128"
target triple = "x86_64-pc-linux-gnu"

; Function Attrs: nounwind sspstrong uwtable
define internal i64 @pm_encoding_iso_8859_4_alpha_char(ptr noundef %0, i64 noundef %1) #0 {
  %3 = alloca ptr, align 8
  %4 = alloca i64, align 8
  store ptr %0, ptr %3, align 8, !tbaa !7
  store i64 %1, ptr %4, align 8, !tbaa !12
  %5 = load ptr, ptr %3, align 8, !tbaa !7
  %6 = load i8, ptr %5, align 1, !tbaa !16
  %7 = zext i8 %6 to i64
  %8 = getelementptr [256 x i8], ptr @pm_encoding_iso_8859_4_table, i64 0, i64 %7
  %9 = load i8, ptr %8, align 1, !tbaa !16
  %10 = zext i8 %9 to i32
  %11 = and i32 %10, 1
  %12 = sext i32 %11 to i64
  ret i64 %12
}